Certificate:
    Data:
        Version: 3 (0x2)
        Serial Number: 2 (0x2)
        Signature Algorithm: sha256WithRSAEncryption
        Issuer: C=CN, ST=Beijing, L=Beijing, O=McLeeX, OU=McLeeX, CN=McLeeX CA/emailAddress=lirx513@gmail.com
        Validity
            Not Before: Feb 11 04:39:31 2020 GMT
            Not After : Feb 10 04:39:31 2021 GMT
        Subject: C=CN, ST=Beijing, O=McLeeX, OU=McLeeX, CN=grpc-java-demo server/emailAddress=server@test.test
        Subject Public Key Info:
            Public Key Algorithm: rsaEncryption
                RSA Public-Key: (2048 bit)
                Modulus:
                    00:a9:fa:65:3f:ab:f4:2f:bf:29:4e:7b:e3:7f:1c:
                    ec:7d:d8:ce:f1:1d:57:08:63:6e:c9:eb:de:5b:f4:
                    68:e6:72:90:1a:50:30:6c:e4:54:5a:77:02:4f:c6:
                    bb:bd:a0:2d:24:91:a2:2e:73:d8:f4:c9:64:71:64:
                    8b:13:f3:d8:4d:17:9d:bf:2c:20:ea:cd:fc:26:e4:
                    3c:98:ac:18:9d:05:a7:fa:3f:d5:6c:fe:41:c2:06:
                    d0:6c:d6:a1:0a:c4:97:ff:79:53:a1:cb:ed:20:04:
                    4d:fd:79:15:6d:35:e5:7d:6e:a5:fe:93:49:0c:7b:
                    fa:47:ed:a6:ce:93:e5:5d:22:ef:d2:94:5f:ed:22:
                    40:3a:c6:04:79:d1:07:83:04:2a:d5:b5:b8:35:50:
                    0a:f4:ad:d6:c5:35:dc:8d:38:90:34:84:65:6b:4a:
                    2f:8e:a4:55:99:71:03:0e:a3:b9:1b:a9:d7:f6:dc:
                    73:b4:56:11:23:d3:6a:29:8b:3c:be:10:a9:34:b7:
                    5f:77:ce:3f:04:ec:26:d7:09:92:05:99:6f:c1:c0:
                    ee:a7:3c:e4:a1:00:c8:72:1b:ad:c5:c3:02:dd:57:
                    41:02:ab:75:54:66:7d:de:56:3f:2d:69:92:05:fb:
                    3b:1b:68:44:b0:9e:4e:74:c5:52:44:bf:62:af:81:
                    aa:19
                Exponent: 65537 (0x10001)
        X509v3 extensions:
            X509v3 Basic Constraints: 
                CA:FALSE
            Netscape Comment: 
                OpenSSL Generated Certificate
            X509v3 Subject Key Identifier: 
                23:8A:C0:D5:C0:5B:64:42:03:6D:F1:7C:13:88:B3:52:43:7F:AB:52
            X509v3 Authority Key Identifier: 
                keyid:E4:36:95:F6:60:39:09:BB:7E:EE:13:A3:7E:19:29:6C:02:83:0E:18

            X509v3 Subject Alternative Name: 
                DNS:grpc-java-demo server, DNS:localhost, IP Address:127.0.0.1, IP Address:0:0:0:0:0:0:0:1
    Signature Algorithm: sha256WithRSAEncryption
         70:d4:4c:b0:f7:fc:eb:be:4c:75:98:f4:4f:44:a4:fe:e6:8e:
         37:6b:7c:8e:ce:1e:a2:7b:ec:0a:5f:38:64:b3:c4:ee:87:c6:
         8a:a4:2a:03:2d:12:2f:80:3b:1a:0c:e3:c9:a8:39:3e:a4:be:
         a6:52:e9:72:19:cd:1e:bd:40:3d:70:9b:f7:be:b6:b4:44:a5:
         80:ea:a3:57:b2:e2:8e:d4:4c:19:06:7f:a6:d5:64:bf:96:54:
         03:f2:78:14:94:e0:24:7a:3b:42:df:f7:f5:bd:3a:32:be:d6:
         cc:59:95:44:7d:9a:bf:79:2c:59:a4:25:61:3d:53:d0:a7:e6:
         43:50:18:82:94:b9:3b:73:6f:c0:0d:97:a6:91:5e:aa:6a:b7:
         e5:f1:5a:3e:57:59:0f:0a:97:c1:39:e8:49:b2:31:59:68:b7:
         b6:59:4f:f8:96:43:ea:3f:80:be:3a:b7:4b:11:99:53:b6:24:
         8e:6c:37:e7:26:02:05:b3:9a:3a:72:29:c3:da:33:78:bf:aa:
         55:4e:18:9f:c0:5c:47:e4:7a:2f:19:be:da:4a:34:2c:41:4f:
         de:4b:65:65:50:dc:41:a3:4c:be:63:69:3c:eb:e0:0a:18:c1:
         0c:2e:32:cf:43:97:b8:67:92:d1:aa:7c:e0:db:52:e3:5b:79:
         6c:9c:b4:c1
-----BEGIN CERTIFICATE-----
MIIESjCCAzKgAwIBAgIBAjANBgkqhkiG9w0BAQsFADCBiTELMAkGA1UEBhMCQ04x
EDAOBgNVBAgMB0JlaWppbmcxEDAOBgNVBAcMB0JlaWppbmcxDzANBgNVBAoMBk1j
TGVlWDEPMA0GA1UECwwGTWNMZWVYMRIwEAYDVQQDDAlNY0xlZVggQ0ExIDAeBgkq
hkiG9w0BCQEWEWxpcng1MTNAZ21haWwuY29tMB4XDTIwMDIxMTA0MzkzMVoXDTIx
MDIxMDA0MzkzMVowgYIxCzAJBgNVBAYTAkNOMRAwDgYDVQQIDAdCZWlqaW5nMQ8w
DQYDVQQKDAZNY0xlZVgxDzANBgNVBAsMBk1jTGVlWDEeMBwGA1UEAwwVZ3JwYy1q
YXZhLWRlbW8gc2VydmVyMR8wHQYJKoZIhvcNAQkBFhBzZXJ2ZXJAdGVzdC50ZXN0
MIIBIjANBgkqhkiG9w0BAQEFAAOCAQ8AMIIBCgKCAQEAqfplP6v0L78pTnvjfxzs
fdjO8R1XCGNuyeveW/Ro5nKQGlAwbORUWncCT8a7vaAtJJGiLnPY9MlkcWSLE/PY
TRedvywg6s38JuQ8mKwYnQWn+j/VbP5BwgbQbNahCsSX/3lTocvtIARN/XkVbTXl
fW6l/pNJDHv6R+2mzpPlXSLv0pRf7SJAOsYEedEHgwQq1bW4NVAK9K3WxTXcjTiQ
NIRla0ovjqRVmXEDDqO5G6nX9txztFYRI9NqKYs8vhCpNLdfd84/BOwm1wmSBZlv
wcDupzzkoQDIchutxcMC3VdBAqt1VGZ93lY/LWmSBfs7G2hEsJ5OdMVSRL9ir4Gq
GQIDAQABo4HBMIG+MAkGA1UdEwQCMAAwLAYJYIZIAYb4QgENBB8WHU9wZW5TU0wg
R2VuZXJhdGVkIENlcnRpZmljYXRlMB0GA1UdDgQWBBQjisDVwFtkQgNt8XwTiLNS
Q3+rUjAfBgNVHSMEGDAWgBTkNpX2YDkJu37uE6N+GSlsAoMOGDBDBgNVHREEPDA6
ghVncnBjLWphdmEtZGVtbyBzZXJ2ZXKCCWxvY2FsaG9zdIcEfwAAAYcQAAAAAAAA
AAAAAAAAAAAAATANBgkqhkiG9w0BAQsFAAOCAQEAcNRMsPf8675MdZj0T0Sk/uaO
N2t8js4eonvsCl84ZLPE7ofGiqQqAy0SL4A7Ggzjyag5PqS+plLpchnNHr1APXCb
9762tESlgOqjV7LijtRMGQZ/ptVkv5ZUA/J4FJTgJHo7Qt/39b06Mr7WzFmVRH2a
v3ksWaQlYT1T0KfmQ1AYgpS5O3NvwA2XppFeqmq35fFaPldZDwqXwTnoSbIxWWi3
tllP+JZD6j+Avjq3SxGZU7Ykjmw35yYCBbOaOnIpw9ozeL+qVU4Yn8BcR+R6Lxm+
2ko0LEFP3ktlZVDcQaNMvmNpPOvgChjBDC4yz0OXuGeS0ap84NtS41t5bJy0wQ==
-----END CERTIFICATE-----
